; Function Attrs: nounwind uwtable
define ptr @l_Lean_Elab_Tactic_Omega_lookup___lambda__2___boxed(ptr noundef %0, ptr noundef %1, ptr noundef %2, ptr noundef %3, ptr noundef %4, ptr noundef %5, ptr noundef %6, ptr noundef %7, ptr noundef %8, ptr noundef %9, ptr noundef %10, ptr noundef %11, ptr noundef %12, ptr noundef %13, ptr noundef %14, ptr noundef %15) local_unnamed_addr #1 {
  %17 = getelementptr i8, ptr %2, i64 8
  %.val48 = load i64, ptr %17, align 8, !tbaa !12
  %18 = ptrtoint ptr %2 to i64
  %19 = and i64 %18, 1
  %.not = icmp eq i64 %19, 0
  br i1 %.not, label %20, label %lean_dec.exit33

20:                                               ; preds = %16
  %21 = load i32, ptr %2, align 4, !tbaa !8
  %22 = icmp sgt i32 %21, 1
  br i1 %22, label %23, label %25, !prof !11

23:                                               ; preds = %20
  %24 = add nsw i32 %21, -1
  store i32 %24, ptr %2, align 4, !tbaa !8
  br label %lean_dec.exit33

25:                                               ; preds = %20
  %.not.i = icmp eq i32 %21, 0
  br i1 %.not.i, label %lean_dec.exit33, label %26

26:                                               ; preds = %25
  tail call void @lean_dec_ref_cold(ptr noundef nonnull %2) #4
  br label %lean_dec.exit33

lean_dec.exit33:                                  ; preds = %26, %25, %23, %16
  %27 = getelementptr i8, ptr %3, i64 8
  %.val = load i64, ptr %27, align 8, !tbaa !12
  %28 = ptrtoint ptr %3 to i64
  %29 = and i64 %28, 1
  %.not49 = icmp eq i64 %29, 0
  br i1 %.not49, label %30, label %lean_dec.exit32

30:                                               ; preds = %lean_dec.exit33
  %31 = load i32, ptr %3, align 4, !tbaa !8
  %32 = icmp sgt i32 %31, 1
  br i1 %32, label %33, label %35, !prof !11

33:                                               ; preds = %30
  %34 = add nsw i32 %31, -1
  store i32 %34, ptr %3, align 4, !tbaa !8
  br label %lean_dec.exit32

35:                                               ; preds = %30
  %.not.i34 = icmp eq i32 %31, 0
  br i1 %.not.i34, label %lean_dec.exit32, label %36

36:                                               ; preds = %35
  tail call void @lean_dec_ref_cold(ptr noundef nonnull %3) #4
  br label %lean_dec.exit32

lean_dec.exit32:                                  ; preds = %36, %35, %33, %lean_dec.exit33
  %37 = ptrtoint ptr %9 to i64
  %38 = and i64 %37, 1
  %.not50 = icmp eq i64 %38, 0
  br i1 %.not50, label %39, label %lean_dec.exit31

39:                                               ; preds = %lean_dec.exit32
  %40 = load i32, ptr %9, align 4, !tbaa !8
  %41 = icmp sgt i32 %40, 1
  br i1 %41, label %42, label %44, !prof !11

42:                                               ; preds = %39
  %43 = add nsw i32 %40, -1
  store i32 %43, ptr %9, align 4, !tbaa !8
  br label %lean_dec.exit31

44:                                               ; preds = %39
  %.not.i36 = icmp eq i32 %40, 0
  br i1 %.not.i36, label %lean_dec.exit31, label %45

45:                                               ; preds = %44
  tail call void @lean_dec_ref_cold(ptr noundef nonnull %9) #4
  br label %lean_dec.exit31

lean_dec.exit31:                                  ; preds = %45, %44, %42, %lean_dec.exit32
  %46 = tail call ptr @l_Lean_Elab_Tactic_Omega_lookup___lambda__2(ptr noundef %0, ptr noundef %1, i64 noundef %.val48, i64 noundef %.val, ptr noundef %4, ptr poison, ptr poison, ptr noundef %7, ptr noundef %8, i8 zeroext poison, ptr poison, ptr noundef %11, ptr noundef %12, ptr noundef %13, ptr noundef %14, ptr noundef %15)
  %47 = ptrtoint ptr %10 to i64
  %48 = and i64 %47, 1
  %.not51 = icmp eq i64 %48, 0
  br i1 %.not51, label %49, label %lean_dec.exit30

49:                                               ; preds = %lean_dec.exit31
  %50 = load i32, ptr %10, align 4, !tbaa !8
  %51 = icmp sgt i32 %50, 1
  br i1 %51, label %52, label %54, !prof !11

52:                                               ; preds = %49
  %53 = add nsw i32 %50, -1
  store i32 %53, ptr %10, align 4, !tbaa !8
  br label %lean_dec.exit30

54:                                               ; preds = %49
  %.not.i38 = icmp eq i32 %50, 0
  br i1 %.not.i38, label %lean_dec.exit30, label %55

55:                                               ; preds = %54
  tail call void @lean_dec_ref_cold(ptr noundef nonnull %10) #4
  br label %lean_dec.exit30

lean_dec.exit30:                                  ; preds = %55, %54, %52, %lean_dec.exit31
  %56 = ptrtoint ptr %8 to i64
  %57 = and i64 %56, 1
  %.not52 = icmp eq i64 %57, 0
  br i1 %.not52, label %58, label %lean_dec.exit29

58:                                               ; preds = %lean_dec.exit30
  %59 = load i32, ptr %8, align 4, !tbaa !8
  %60 = icmp sgt i32 %59, 1
  br i1 %60, label %61, label %63, !prof !11

61:                                               ; preds = %58
  %62 = add nsw i32 %59, -1
  store i32 %62, ptr %8, align 4, !tbaa !8
  br label %lean_dec.exit29

63:                                               ; preds = %58
  %.not.i40 = icmp eq i32 %59, 0
  br i1 %.not.i40, label %lean_dec.exit29, label %64

64:                                               ; preds = %63
  tail call void @lean_dec_ref_cold(ptr noundef nonnull %8) #4
  br label %lean_dec.exit29

lean_dec.exit29:                                  ; preds = %64, %63, %61, %lean_dec.exit30
  %65 = ptrtoint ptr %7 to i64
  %66 = and i64 %65, 1
  %.not53 = icmp eq i64 %66, 0
  br i1 %.not53, label %67, label %lean_dec.exit28

67:                                               ; preds = %lean_dec.exit29
  %68 = load i32, ptr %7, align 4, !tbaa !8
  %69 = icmp sgt i32 %68, 1
  br i1 %69, label %70, label %72, !prof !11

70:                                               ; preds = %67
  %71 = add nsw i32 %68, -1
  store i32 %71, ptr %7, align 4, !tbaa !8
  br label %lean_dec.exit28

72:                                               ; preds = %67
  %.not.i42 = icmp eq i32 %68, 0
  br i1 %.not.i42, label %lean_dec.exit28, label %73

73:                                               ; preds = %72
  tail call void @lean_dec_ref_cold(ptr noundef nonnull %7) #4
  br label %lean_dec.exit28

lean_dec.exit28:                                  ; preds = %73, %72, %70, %lean_dec.exit29
  %74 = ptrtoint ptr %6 to i64
  %75 = and i64 %74, 1
  %.not54 = icmp eq i64 %75, 0
  br i1 %.not54, label %76, label %lean_dec.exit27

76:                                               ; preds = %lean_dec.exit28
  %77 = load i32, ptr %6, align 4, !tbaa !8
  %78 = icmp sgt i32 %77, 1
  br i1 %78, label %79, label %81, !prof !11

79:                                               ; preds = %76
  %80 = add nsw i32 %77, -1
  store i32 %80, ptr %6, align 4, !tbaa !8
  br label %lean_dec.exit27

81:                                               ; preds = %76
  %.not.i44 = icmp eq i32 %77, 0
  br i1 %.not.i44, label %lean_dec.exit27, label %82

82:                                               ; preds = %81
  tail call void @lean_dec_ref_cold(ptr noundef nonnull %6) #4
  br label %lean_dec.exit27

lean_dec.exit27:                                  ; preds = %82, %81, %79, %lean_dec.exit28
  %83 = ptrtoint ptr %5 to i64
  %84 = and i64 %83, 1
  %.not55 = icmp eq i64 %84, 0
  br i1 %.not55, label %85, label %lean_dec.exit

85:                                               ; preds = %lean_dec.exit27
  %86 = load i32, ptr %5, align 4, !tbaa !8
  %87 = icmp sgt i32 %86, 1
  br i1 %87, label %88, label %90, !prof !11

88:                                               ; preds = %85
  %89 = add nsw i32 %86, -1
  store i32 %89, ptr %5, align 4, !tbaa !8
  br label %lean_dec.exit

90:                                               ; preds = %85
  %.not.i46 = icmp eq i32 %86, 0
  br i1 %.not.i46, label %lean_dec.exit, label %91

91:                                               ; preds = %90
  tail call void @lean_dec_ref_cold(ptr noundef nonnull %5) #4
  br label %lean_dec.exit

lean_dec.exit:                                    ; preds = %91, %90, %88, %lean_dec.exit27
  ret ptr %46
}